; Function Attrs: mustprogress uwtable
define noundef double @_ZNK8QuantLib14NoArbSabrModel18digitalOptionPriceEd(ptr noundef nonnull align 8 dereferenceable(112) %this, double noundef %strike) local_unnamed_addr #0 align 2 personality ptr @__gxx_personality_v0 {
entry:
  %ref.tmp = alloca %"class.std::function", align 8
  %cmp = fcmp olt double %strike, 0x10000000000000
  br i1 %cmp, label %return, label %if.end

if.end:                                           ; preds = %entry
  %forward_ = getelementptr inbounds nuw i8, ptr %this, i64 72
  %0 = load double, ptr %forward_, align 8, !tbaa !52
  %cmp.i = fcmp olt double %0, %strike
  %.sroa.speculated11 = select i1 %cmp.i, double %strike, double %0
  %call3 = tail call noundef double @_ZNK8QuantLib14NoArbSabrModel1pEd(ptr noundef nonnull align 8 dereferenceable(112) %this, double noundef %.sroa.speculated11)
  %cmp4 = fcmp olt double %call3, 1.000000e-100
  br i1 %cmp4, label %return, label %if.end6

if.end6:                                          ; preds = %if.end
  %absProb_ = getelementptr inbounds nuw i8, ptr %this, i64 48
  %1 = load double, ptr %absProb_, align 8, !tbaa !36
  %integrator_ = getelementptr inbounds nuw i8, ptr %this, i64 96
  %2 = load ptr, ptr %integrator_, align 8, !tbaa !31
  %cmp.not.i = icmp eq ptr %2, null
  br i1 %cmp.not.i, label %cond.false.i, label %_ZNK5boost10shared_ptrIN8QuantLib20GaussLobattoIntegralEEdeEv.exit, !prof !91

cond.false.i:                                     ; preds = %if.end6
  tail call void @_ZN5boost16assertion_failedEPKcS1_S1_l(ptr noundef nonnull @.str.37, ptr noundef nonnull @__PRETTY_FUNCTION__._ZNK5boost10shared_ptrIN8QuantLib20GaussLobattoIntegralEEdeEv, ptr noundef nonnull @.str.38, i64 noundef 778)
  %.pre.i = load ptr, ptr %integrator_, align 8, !tbaa !31
  br label %_ZNK5boost10shared_ptrIN8QuantLib20GaussLobattoIntegralEEdeEv.exit

_ZNK5boost10shared_ptrIN8QuantLib20GaussLobattoIntegralEEdeEv.exit: ; preds = %if.end6, %cond.false.i
  %3 = phi ptr [ %2, %if.end6 ], [ %.pre.i, %cond.false.i ]
  call void @llvm.lifetime.start.p0(i64 32, ptr nonnull %ref.tmp) #32
  %_M_manager.i.i = getelementptr inbounds nuw i8, ptr %ref.tmp, i64 16
  %_M_invoker.i = getelementptr inbounds nuw i8, ptr %ref.tmp, i64 24
  %4 = getelementptr inbounds i8, ptr %ref.tmp, i64 8
  store i64 0, ptr %4, align 8
  %5 = ptrtoint ptr %this to i64
  store i64 %5, ptr %ref.tmp, align 8, !tbaa !33
  store ptr @_ZNSt17_Function_handlerIFddEN8QuantLib14NoArbSabrModel11p_integrandEE9_M_invokeERKSt9_Any_dataOd, ptr %_M_invoker.i, align 8, !tbaa !92
  store ptr @_ZNSt17_Function_handlerIFddEN8QuantLib14NoArbSabrModel11p_integrandEE10_M_managerERSt9_Any_dataRKS5_St18_Manager_operation, ptr %_M_manager.i.i, align 8, !tbaa !95
  %fmax_ = getelementptr inbounds nuw i8, ptr %this, i64 64
  %mul = fmul double %strike, 2.000000e+00
  %6 = load double, ptr %fmax_, align 8, !tbaa !52
  %cmp.i1 = fcmp olt double %6, %mul
  %.sroa.speculated = select i1 %cmp.i1, double %mul, double %6
  %call12 = invoke noundef double @_ZNK8QuantLib10IntegratorclERKSt8functionIFddEEdd(ptr noundef nonnull align 8 dereferenceable(40) %3, ptr noundef nonnull align 8 dereferenceable(32) %ref.tmp, double noundef %strike, double noundef %.sroa.speculated)
          to label %invoke.cont11 unwind label %lpad

invoke.cont11:                                    ; preds = %_ZNK5boost10shared_ptrIN8QuantLib20GaussLobattoIntegralEEdeEv.exit
  %sub = fsub double 1.000000e+00, %1
  %numericalIntegralOverP_ = getelementptr inbounds nuw i8, ptr %this, i64 80
  %7 = load double, ptr %numericalIntegralOverP_, align 8, !tbaa !96
  %div = fdiv double %call12, %7
  %mul13 = fmul double %sub, %div
  %8 = load ptr, ptr %_M_manager.i.i, align 8, !tbaa !95
  %tobool.not.i = icmp eq ptr %8, null
  br i1 %tobool.not.i, label %_ZNSt14_Function_baseD2Ev.exit, label %if.then.i

if.then.i:                                        ; preds = %invoke.cont11
  %call.i = invoke noundef zeroext i1 %8(ptr noundef nonnull align 8 dereferenceable(16) %ref.tmp, ptr noundef nonnull align 8 dereferenceable(16) %ref.tmp, i32 noundef 3)
          to label %_ZNSt14_Function_baseD2Ev.exit unwind label %terminate.lpad.i

terminate.lpad.i:                                 ; preds = %if.then.i
  %9 = landingpad { ptr, i32 }
          catch ptr null
  %10 = extractvalue { ptr, i32 } %9, 0
  call void @__clang_call_terminate(ptr %10) #35
  unreachable

_ZNSt14_Function_baseD2Ev.exit:                   ; preds = %invoke.cont11, %if.then.i
  call void @llvm.lifetime.end.p0(i64 32, ptr nonnull %ref.tmp) #32
  br label %return

lpad:                                             ; preds = %_ZNK5boost10shared_ptrIN8QuantLib20GaussLobattoIntegralEEdeEv.exit
  %11 = landingpad { ptr, i32 }
          cleanup
  %12 = load ptr, ptr %_M_manager.i.i, align 8, !tbaa !95
  %tobool.not.i4 = icmp eq ptr %12, null
  br i1 %tobool.not.i4, label %_ZNSt14_Function_baseD2Ev.exit8, label %if.then.i5

if.then.i5:                                       ; preds = %lpad
  %call.i6 = invoke noundef zeroext i1 %12(ptr noundef nonnull align 8 dereferenceable(16) %ref.tmp, ptr noundef nonnull align 8 dereferenceable(16) %ref.tmp, i32 noundef 3)
          to label %_ZNSt14_Function_baseD2Ev.exit8 unwind label %terminate.lpad.i7

terminate.lpad.i7:                                ; preds = %if.then.i5
  %13 = landingpad { ptr, i32 }
          catch ptr null
  %14 = extractvalue { ptr, i32 } %13, 0
  call void @__clang_call_terminate(ptr %14) #35
  unreachable

_ZNSt14_Function_baseD2Ev.exit8:                  ; preds = %lpad, %if.then.i5
  call void @llvm.lifetime.end.p0(i64 32, ptr nonnull %ref.tmp) #32
  resume { ptr, i32 } %11

return:                                           ; preds = %if.end, %entry, %_ZNSt14_Function_baseD2Ev.exit
  %retval.0 = phi double [ %mul13, %_ZNSt14_Function_baseD2Ev.exit ], [ 1.000000e+00, %entry ], [ 0.000000e+00, %if.end ]
  ret double %retval.0
}